; Function Attrs: mustprogress uwtable
define internal fastcc void @_ZN12_GLOBAL__N_19CxxStructixB5cxx11EN5Yosys5RTLIL8IdStringE(ptr dead_on_unwind noalias nonnull writable align 8 %0, ptr noundef nonnull align 8 dereferenceable(216) %1, ptr noundef nonnull readonly captures(none) %2) unnamed_addr #5 align 2 personality ptr @__gxx_personality_v0 {
  %4 = alloca %"struct.Yosys::RTLIL::IdString", align 4
  %5 = alloca %"struct.Yosys::RTLIL::IdString", align 4
  %6 = load i32, ptr %2, align 4, !tbaa !32
  %.not.i.i = icmp eq i32 %6, 0
  br i1 %.not.i.i, label %_ZN5Yosys5RTLIL8IdStringC2ERKS1_.exit.thread, label %_ZN5Yosys5RTLIL8IdStringC2ERKS1_.exit

_ZN5Yosys5RTLIL8IdStringC2ERKS1_.exit.thread:     ; preds = %3
  store i32 0, ptr %4, align 4, !tbaa !32
  br label %17

_ZN5Yosys5RTLIL8IdStringC2ERKS1_.exit:            ; preds = %3
  %7 = sext i32 %6 to i64
  %8 = load ptr, ptr @_ZN5Yosys5RTLIL8IdString24global_refcount_storage_E, align 8, !tbaa !53
  %9 = getelementptr inbounds nuw i32, ptr %8, i64 %7
  %10 = load i32, ptr %9, align 4, !tbaa !56
  %11 = add nsw i32 %10, 1
  store i32 %11, ptr %9, align 4, !tbaa !56
  %.pr = load i32, ptr %2, align 4, !tbaa !32
  store i32 %6, ptr %4, align 4, !tbaa !32
  %.not.i.i4 = icmp eq i32 %.pr, 0
  br i1 %.not.i.i4, label %17, label %12

12:                                               ; preds = %_ZN5Yosys5RTLIL8IdStringC2ERKS1_.exit
  %13 = sext i32 %.pr to i64
  %14 = getelementptr inbounds nuw i32, ptr %8, i64 %13
  %15 = load i32, ptr %14, align 4, !tbaa !56
  %16 = add nsw i32 %15, 1
  store i32 %16, ptr %14, align 4, !tbaa !56
  br label %17

17:                                               ; preds = %12, %_ZN5Yosys5RTLIL8IdStringC2ERKS1_.exit, %_ZN5Yosys5RTLIL8IdStringC2ERKS1_.exit.thread
  %18 = phi i32 [ 0, %_ZN5Yosys5RTLIL8IdStringC2ERKS1_.exit.thread ], [ 0, %_ZN5Yosys5RTLIL8IdStringC2ERKS1_.exit ], [ %.pr, %12 ]
  store i32 %18, ptr %5, align 4, !tbaa !32
  %19 = getelementptr inbounds nuw i8, ptr %1, i64 88
  invoke void @_ZN5Yosys10Functional5ScopeINS_5RTLIL8IdStringEEclB5cxx11ES3_S3_(ptr dead_on_unwind nonnull writable sret(%"class.std::__cxx11::basic_string") align 8 %0, ptr noundef nonnull align 8 dereferenceable(128) %19, ptr noundef nonnull %4, ptr noundef nonnull %5)
          to label %20 unwind label %51

20:                                               ; preds = %17
  %21 = load i32, ptr %5, align 4, !tbaa !32
  %22 = load i8, ptr @_ZN5Yosys5RTLIL8IdString17destruct_guard_okE, align 1, !tbaa !57, !range !59, !noundef !60
  %23 = trunc nuw i8 %22 to i1
  %24 = icmp ne i32 %21, 0
  %or.cond.i.i = and i1 %24, %23
  br i1 %or.cond.i.i, label %25, label %_ZN5Yosys5RTLIL8IdStringD2Ev.exit

25:                                               ; preds = %20
  %26 = sext i32 %21 to i64
  %27 = load ptr, ptr @_ZN5Yosys5RTLIL8IdString24global_refcount_storage_E, align 8, !tbaa !53
  %28 = getelementptr inbounds nuw i32, ptr %27, i64 %26
  %29 = load i32, ptr %28, align 4, !tbaa !56
  %30 = add nsw i32 %29, -1
  store i32 %30, ptr %28, align 4, !tbaa !56
  %31 = icmp sgt i32 %29, 1
  br i1 %31, label %_ZN5Yosys5RTLIL8IdStringD2Ev.exit, label %32

32:                                               ; preds = %25
  invoke void @_ZN5Yosys5RTLIL8IdString14free_referenceEi(i32 noundef %21)
          to label %._ZN5Yosys5RTLIL8IdStringD2Ev.exit_crit_edge unwind label %33

._ZN5Yosys5RTLIL8IdStringD2Ev.exit_crit_edge:     ; preds = %32
  %.pre = load i8, ptr @_ZN5Yosys5RTLIL8IdString17destruct_guard_okE, align 1, !tbaa !57, !range !59
  br label %_ZN5Yosys5RTLIL8IdStringD2Ev.exit

33:                                               ; preds = %32
  %34 = landingpad { ptr, i32 }
          catch ptr null
  %35 = extractvalue { ptr, i32 } %34, 0
  call void @__clang_call_terminate(ptr %35) #33
  unreachable

_ZN5Yosys5RTLIL8IdStringD2Ev.exit:                ; preds = %._ZN5Yosys5RTLIL8IdStringD2Ev.exit_crit_edge, %20, %25
  %36 = phi i8 [ %.pre, %._ZN5Yosys5RTLIL8IdStringD2Ev.exit_crit_edge ], [ %22, %20 ], [ 1, %25 ]
  %37 = load i32, ptr %4, align 4, !tbaa !32
  %38 = trunc nuw i8 %36 to i1
  %39 = icmp ne i32 %37, 0
  %or.cond.i.i6 = and i1 %39, %38
  br i1 %or.cond.i.i6, label %40, label %_ZN5Yosys5RTLIL8IdStringD2Ev.exit7

40:                                               ; preds = %_ZN5Yosys5RTLIL8IdStringD2Ev.exit
  %41 = sext i32 %37 to i64
  %42 = load ptr, ptr @_ZN5Yosys5RTLIL8IdString24global_refcount_storage_E, align 8, !tbaa !53
  %43 = getelementptr inbounds nuw i32, ptr %42, i64 %41
  %44 = load i32, ptr %43, align 4, !tbaa !56
  %45 = add nsw i32 %44, -1
  store i32 %45, ptr %43, align 4, !tbaa !56
  %46 = icmp sgt i32 %44, 1
  br i1 %46, label %_ZN5Yosys5RTLIL8IdStringD2Ev.exit7, label %47

47:                                               ; preds = %40
  invoke void @_ZN5Yosys5RTLIL8IdString14free_referenceEi(i32 noundef %37)
          to label %_ZN5Yosys5RTLIL8IdStringD2Ev.exit7 unwind label %48

48:                                               ; preds = %47
  %49 = landingpad { ptr, i32 }
          catch ptr null
  %50 = extractvalue { ptr, i32 } %49, 0
  call void @__clang_call_terminate(ptr %50) #33
  unreachable

_ZN5Yosys5RTLIL8IdStringD2Ev.exit7:               ; preds = %_ZN5Yosys5RTLIL8IdStringD2Ev.exit, %40, %47
  ret void

51:                                               ; preds = %17
  %52 = landingpad { ptr, i32 }
          cleanup
  call void @_ZN5Yosys5RTLIL8IdStringD2Ev(ptr noundef nonnull align 4 dereferenceable(4) %5) #29
  call void @_ZN5Yosys5RTLIL8IdStringD2Ev(ptr noundef nonnull align 4 dereferenceable(4) %4) #29
  resume { ptr, i32 } %52
}